---
triple:          'arm64-apple-darwin'
binary-path:     '/Users/krishna/Central/LC-Git/LEETCODE/LC-973/LC-973'
relocations:
  - { offset: 0xBC8F, size: 0x8, addend: 0x0, symName: __ZStL8__ioinit, symObjAddr: 0x5842E, symBinAddr: 0x100010000, symSize: 0x0 }
  - { offset: 0xC785, size: 0x8, addend: 0x0, symName: __ZNK9__gnu_cxx5__ops15_Iter_less_iterclIPKiS4_EEbT_T0_, symObjAddr: 0x420C, symBinAddr: 0x100007E2C, symSize: 0x34 }
  - { offset: 0xC7D9, size: 0x8, addend: 0x0, symName: __ZNSt8__lc_raiISt26random_access_iterator_tagS0_E6__cnd2IPKiEEbT_S5_, symObjAddr: 0x41F4, symBinAddr: 0x100007E14, symSize: 0x18 }
  - { offset: 0xC80A, size: 0x8, addend: 0x0, symName: __ZNSt8__lc_raiISt26random_access_iterator_tagS0_E10__newlast1IPKiS4_EET_S5_S5_T0_S6_, symObjAddr: 0x4188, symBinAddr: 0x100007DA8, symSize: 0x6C }
  - { offset: 0xC894, size: 0x8, addend: 0x0, symName: __ZSt30__lexicographical_compare_implIPKiS1_N9__gnu_cxx5__ops15_Iter_less_iterEEbT_S5_T0_S6_T1_, symObjAddr: 0x4078, symBinAddr: 0x100007C98, symSize: 0x110 }
  - { offset: 0xC917, size: 0x8, addend: 0x0, symName: __ZNSt25__lexicographical_compareILb0EE4__lcIPKiS3_EEbT_S4_T0_S5_, symObjAddr: 0x4034, symBinAddr: 0x100007C54, symSize: 0x44 }
  - { offset: 0xC981, size: 0x8, addend: 0x0, symName: __ZSt30__lexicographical_compare_aux1IPKiS1_EbT_S2_T0_S3_, symObjAddr: 0x3FFC, symBinAddr: 0x100007C1C, symSize: 0x38 }
  - { offset: 0xC9FB, size: 0x8, addend: 0x0, symName: __ZNSt11__copy_moveILb0ELb0ESt26random_access_iterator_tagE12__assign_oneIiKiEEvPT_PT0_, symObjAddr: 0x3FD4, symBinAddr: 0x100007BF4, symSize: 0x28 }
  - { offset: 0xCA45, size: 0x8, addend: 0x0, symName: __ZSt29__lexicographical_compare_auxIN9__gnu_cxx17__normal_iteratorIPKiSt6vectorIiSaIiEEEES7_EbT_S8_T0_S9_, symObjAddr: 0x3F64, symBinAddr: 0x100007B84, symSize: 0x70 }
  - { offset: 0xCAC3, size: 0x8, addend: 0x0, symName: __ZNSt11__copy_moveILb0ELb1ESt26random_access_iterator_tagE8__copy_mIKiiEEPT0_PT_S7_S5_, symObjAddr: 0x3ED4, symBinAddr: 0x100007AF4, symSize: 0x90 }
  - { offset: 0xCB2D, size: 0x8, addend: 0x0, symName: __ZSt12__niter_baseIPKiET_S2_, symObjAddr: 0x3EC0, symBinAddr: 0x100007AE0, symSize: 0x14 }
  - { offset: 0xCBCB, size: 0x8, addend: 0x0, symName: __ZSt4moveIRSaIiEEONSt16remove_referenceIT_E4typeEOS3_, symObjAddr: 0x3EAC, symBinAddr: 0x100007ACC, symSize: 0x14 }
  - { offset: 0xCBFF, size: 0x8, addend: 0x0, symName: __ZNSt12_Vector_baseIiSaIiEE17_Vector_impl_data12_M_copy_dataERKS2_, symObjAddr: 0x3E64, symBinAddr: 0x100007A84, symSize: 0x48 }
  - { offset: 0xCC32, size: 0x8, addend: 0x0, symName: __ZSt23lexicographical_compareIN9__gnu_cxx17__normal_iteratorIPKiSt6vectorIiSaIiEEEES7_EbT_S8_T0_S9_, symObjAddr: 0x3E30, symBinAddr: 0x100007A50, symSize: 0x34 }
  - { offset: 0xCC9C, size: 0x8, addend: 0x0, symName: __ZSt19__relocate_object_aISt4pairIdSt6vectorIiSaIiEEES4_SaIS4_EEvPT_PT0_RT1_, symObjAddr: 0x3D60, symBinAddr: 0x100007980, symSize: 0xD0 }
  - { offset: 0xCDD0, size: 0x8, addend: 0x0, symName: __ZSt14__copy_move_a2ILb0EPKiPiET1_T0_S4_S3_, symObjAddr: 0x3D34, symBinAddr: 0x100007954, symSize: 0x2C }
  - { offset: 0xCE38, size: 0x8, addend: 0x0, symName: __ZNK9__gnu_cxx17__normal_iteratorIPKiSt6vectorIiSaIiEEE4baseEv, symObjAddr: 0x3D20, symBinAddr: 0x100007940, symSize: 0x14 }
  - { offset: 0xCE5C, size: 0x8, addend: 0x0, symName: __ZSt10_ConstructISt6vectorIiSaIiEEJRKS2_EEvPT_DpOT0_, symObjAddr: 0x3CA4, symBinAddr: 0x1000078C4, symSize: 0x7C }
  - { offset: 0xCEA4, size: 0x8, addend: 0x0, symName: __ZSt13__copy_move_aILb0EPKiPiET1_T0_S4_S3_, symObjAddr: 0x3C44, symBinAddr: 0x100007864, symSize: 0x60 }
  - { offset: 0xCF08, size: 0x8, addend: 0x0, symName: __ZSt12__miter_baseIPKiET_S2_, symObjAddr: 0x3C30, symBinAddr: 0x100007850, symSize: 0x14 }
  - { offset: 0xCFD1, size: 0x8, addend: 0x0, symName: __ZNSt12_Vector_baseIiSaIiEE17_Vector_impl_data12_M_swap_dataERS2_, symObjAddr: 0x3BE4, symBinAddr: 0x100007804, symSize: 0x4C }
  - { offset: 0xD03C, size: 0x8, addend: 0x0, symName: __ZNSt6vectorIiSaIiEEC1ERKS0_, symObjAddr: 0x3BBC, symBinAddr: 0x1000077DC, symSize: 0x28 }
  - { offset: 0xD068, size: 0x8, addend: 0x0, symName: __ZNKSt12_Vector_baseIiSaIiEE13get_allocatorEv, symObjAddr: 0x3B6C, symBinAddr: 0x10000778C, symSize: 0x50 }
  - { offset: 0xD0DF, size: 0x8, addend: 0x0, symName: __ZStltIiSaIiEEbRKSt6vectorIT_T0_ES6_, symObjAddr: 0x3B04, symBinAddr: 0x100007724, symSize: 0x68 }
  - { offset: 0xD129, size: 0x8, addend: 0x0, symName: __ZSt14__relocate_a_1IPSt4pairIdSt6vectorIiSaIiEEES5_SaIS4_EET0_T_S8_S7_RT1_, symObjAddr: 0x3A80, symBinAddr: 0x1000076A0, symSize: 0x84 }
  - { offset: 0xD1AC, size: 0x8, addend: 0x0, symName: __ZSt12__niter_baseIPSt4pairIdSt6vectorIiSaIiEEEET_S6_, symObjAddr: 0x3A6C, symBinAddr: 0x10000768C, symSize: 0x14 }
  - { offset: 0xD1E1, size: 0x8, addend: 0x0, symName: __ZNSt15__new_allocatorISt4pairIdSt6vectorIiSaIiEEEE8allocateEmPKv, symObjAddr: 0x39F0, symBinAddr: 0x100007610, symSize: 0x7C }
  - { offset: 0xD263, size: 0x8, addend: 0x0, symName: __ZNKSt12_Vector_baseISt4pairIdSt6vectorIiSaIiEEESaIS4_EE19_M_get_Tp_allocatorEv, symObjAddr: 0x39DC, symBinAddr: 0x1000075FC, symSize: 0x14 }
  - { offset: 0xD287, size: 0x8, addend: 0x0, symName: __ZNSt6vectorISt4pairIdS_IiSaIiEEESaIS3_EE11_S_max_sizeERKS4_, symObjAddr: 0x3988, symBinAddr: 0x1000075A8, symSize: 0x54 }
  - { offset: 0xD334, size: 0x8, addend: 0x0, symName: __ZSt12__niter_wrapIPiET_RKS1_S1_, symObjAddr: 0x3970, symBinAddr: 0x100007590, symSize: 0x18 }
  - { offset: 0xD36D, size: 0x8, addend: 0x0, symName: __ZSt14__copy_move_a1ILb0EPKiPiET1_T0_S4_S3_, symObjAddr: 0x3944, symBinAddr: 0x100007564, symSize: 0x2C }
  - { offset: 0xD3D1, size: 0x8, addend: 0x0, symName: __ZSt12__niter_baseIPiET_S1_, symObjAddr: 0x3930, symBinAddr: 0x100007550, symSize: 0x14 }
  - { offset: 0xD402, size: 0x8, addend: 0x0, symName: __ZSt12__niter_baseIPKiSt6vectorIiSaIiEEET_N9__gnu_cxx17__normal_iteratorIS5_T0_EE, symObjAddr: 0x3910, symBinAddr: 0x100007530, symSize: 0x20 }
  - { offset: 0xD43C, size: 0x8, addend: 0x0, symName: __ZSt16__do_uninit_copyIPKSt6vectorIiSaIiEEPS2_ET0_T_S7_S6_, symObjAddr: 0x387C, symBinAddr: 0x10000749C, symSize: 0x94 }
  - { offset: 0xD4B6, size: 0x8, addend: 0x0, symName: __ZSt4copyIPKiPiET0_T_S4_S3_, symObjAddr: 0x3834, symBinAddr: 0x100007454, symSize: 0x48 }
  - { offset: 0xD524, size: 0x8, addend: 0x0, symName: __ZSt19__relocate_object_aISt6vectorIiSaIiEES2_SaIS2_EEvPT_PT0_RT1_, symObjAddr: 0x3764, symBinAddr: 0x100007384, symSize: 0xD0 }
  - { offset: 0xD648, size: 0x8, addend: 0x0, symName: __ZNSt6vectorIiSaIiEE14_M_move_assignEOS1_St17integral_constantIbLb1EE, symObjAddr: 0x36D0, symBinAddr: 0x1000072F0, symSize: 0x94 }
  - { offset: 0xD6E5, size: 0x8, addend: 0x0, symName: __ZSt4moveIRSt6vectorIiSaIiEEEONSt16remove_referenceIT_E4typeEOS5_, symObjAddr: 0x36BC, symBinAddr: 0x1000072DC, symSize: 0x14 }
  - { offset: 0xD715, size: 0x8, addend: 0x0, symName: __ZStltIdSt6vectorIiSaIiEEEbRKSt4pairIT_T0_ES8_, symObjAddr: 0x3628, symBinAddr: 0x100007248, symSize: 0x94 }
  - { offset: 0xD765, size: 0x8, addend: 0x0, symName: __ZSt7forwardIRSt4pairIdSt6vectorIiSaIiEEEEOT_RNSt16remove_referenceIS6_E4typeE, symObjAddr: 0x3614, symBinAddr: 0x100007234, symSize: 0x14 }
  - { offset: 0xD795, size: 0x8, addend: 0x0, symName: __ZSt12__relocate_aIPSt4pairIdSt6vectorIiSaIiEEES5_SaIS4_EET0_T_S8_S7_RT1_, symObjAddr: 0x35B8, symBinAddr: 0x1000071D8, symSize: 0x5C }
  - { offset: 0xD82D, size: 0x8, addend: 0x0, symName: __ZNKSt6vectorISt4pairIdS_IiSaIiEEESaIS3_EE8max_sizeEv, symObjAddr: 0x3598, symBinAddr: 0x1000071B8, symSize: 0x20 }
  - { offset: 0xD851, size: 0x8, addend: 0x0, symName: __ZSt13__copy_move_aILb0EN9__gnu_cxx17__normal_iteratorIPKiSt6vectorIiSaIiEEEEPiET1_T0_SA_S9_, symObjAddr: 0x3538, symBinAddr: 0x100007158, symSize: 0x60 }
  - { offset: 0xD8B5, size: 0x8, addend: 0x0, symName: __ZSt12__miter_baseIN9__gnu_cxx17__normal_iteratorIPKiSt6vectorIiSaIiEEEEET_S8_, symObjAddr: 0x3524, symBinAddr: 0x100007144, symSize: 0x14 }
  - { offset: 0xD8E6, size: 0x8, addend: 0x0, symName: __ZNSt20__uninitialized_copyILb0EE13__uninit_copyIPKSt6vectorIiSaIiEEPS4_EET0_T_S9_S8_, symObjAddr: 0x34F8, symBinAddr: 0x100007118, symSize: 0x2C }
  - { offset: 0xD951, size: 0x8, addend: 0x0, symName: __ZNSt20__uninitialized_copyILb1EE13__uninit_copyIPKiPiEET0_T_S6_S5_, symObjAddr: 0x34CC, symBinAddr: 0x1000070EC, symSize: 0x2C }
  - { offset: 0xD9AC, size: 0x8, addend: 0x0, symName: __ZNSt15__new_allocatorIiE8allocateEmPKv, symObjAddr: 0x3450, symBinAddr: 0x100007070, symSize: 0x7C }
  - { offset: 0xDA30, size: 0x8, addend: 0x0, symName: __ZSt3minImERKT_S2_S2_, symObjAddr: 0x3418, symBinAddr: 0x100007038, symSize: 0x38 }
  - { offset: 0xDA83, size: 0x8, addend: 0x0, symName: __ZSt14__relocate_a_1IPSt6vectorIiSaIiEES3_SaIS2_EET0_T_S6_S5_RT1_, symObjAddr: 0x3394, symBinAddr: 0x100006FB4, symSize: 0x84 }
  - { offset: 0xDB06, size: 0x8, addend: 0x0, symName: __ZSt12__niter_baseIPSt6vectorIiSaIiEEET_S4_, symObjAddr: 0x3380, symBinAddr: 0x100006FA0, symSize: 0x14 }
  - { offset: 0xDB3B, size: 0x8, addend: 0x0, symName: __ZNSt15__new_allocatorISt6vectorIiSaIiEEE8allocateEmPKv, symObjAddr: 0x32F0, symBinAddr: 0x100006F10, symSize: 0x90 }
  - { offset: 0xDBBD, size: 0x8, addend: 0x0, symName: __ZNKSt12_Vector_baseISt6vectorIiSaIiEESaIS2_EE19_M_get_Tp_allocatorEv, symObjAddr: 0x32DC, symBinAddr: 0x100006EFC, symSize: 0x14 }
  - { offset: 0xDC09, size: 0x8, addend: 0x0, symName: __ZN9__gnu_cxx5__ops14_Iter_comp_valISt4lessIvEEC1EONS0_15_Iter_comp_iterIS3_EE, symObjAddr: 0x32B8, symBinAddr: 0x100006ED8, symSize: 0x24 }
  - { offset: 0xDC3D, size: 0x8, addend: 0x0, symName: __ZSt4moveIRN9__gnu_cxx5__ops15_Iter_comp_iterISt4lessIvEEEEONSt16remove_referenceIT_E4typeEOS8_, symObjAddr: 0x32A4, symBinAddr: 0x100006EC4, symSize: 0x14 }
  - { offset: 0xDC71, size: 0x8, addend: 0x0, symName: __ZN9__gnu_cxx5__ops15_Iter_comp_iterISt4lessIvEEclINS_17__normal_iteratorIPSt4pairIdSt6vectorIiSaIiEEES8_ISB_SaISB_EEEESF_EEbT_T0_, symObjAddr: 0x3258, symBinAddr: 0x100006E78, symSize: 0x4C }
  - { offset: 0xDCC9, size: 0x8, addend: 0x0, symName: __ZNSt6vectorIiSaIiEEaSEOS1_, symObjAddr: 0x3214, symBinAddr: 0x100006E34, symSize: 0x44 }
  - { offset: 0xDD14, size: 0x8, addend: 0x0, symName: __ZSt7forwardISt6vectorIiSaIiEEEOT_RNSt16remove_referenceIS3_E4typeE, symObjAddr: 0x3200, symBinAddr: 0x100006E20, symSize: 0x14 }
  - { offset: 0xDD4A, size: 0x8, addend: 0x0, symName: __ZSt7forwardIdEOT_RNSt16remove_referenceIS0_E4typeE, symObjAddr: 0x31EC, symBinAddr: 0x100006E0C, symSize: 0x14 }
  - { offset: 0xDD89, size: 0x8, addend: 0x0, symName: __ZNKSt4lessIvEclIRSt4pairIdSt6vectorIiSaIiEEES7_EEDTltcl7forwardIT_Efp_Ecl7forwardIT0_Efp0_EEOS8_OS9_, symObjAddr: 0x31A4, symBinAddr: 0x100006DC4, symSize: 0x48 }
  - { offset: 0xDDDF, size: 0x8, addend: 0x0, symName: __ZNSt4lessIvE6_S_cmpIRSt4pairIdSt6vectorIiSaIiEEES7_EEDcOT_OT0_St17integral_constantIbLb0EE, symObjAddr: 0x3160, symBinAddr: 0x100006D80, symSize: 0x44 }
  - { offset: 0xDE31, size: 0x8, addend: 0x0, symName: __ZNSt6vectorISt4pairIdS_IiSaIiEEESaIS3_EE11_S_relocateEPS3_S6_S6_RS4_, symObjAddr: 0x312C, symBinAddr: 0x100006D4C, symSize: 0x34 }
  - { offset: 0xDE89, size: 0x8, addend: 0x0, symName: __ZSt12__to_addressISt4pairIdSt6vectorIiSaIiEEEEPT_S6_, symObjAddr: 0x3118, symBinAddr: 0x100006D38, symSize: 0x14 }
  - { offset: 0xDEBD, size: 0x8, addend: 0x0, symName: __ZNSt12_Vector_baseISt4pairIdSt6vectorIiSaIiEEESaIS4_EE11_M_allocateEm, symObjAddr: 0x30C8, symBinAddr: 0x100006CE8, symSize: 0x50 }
  - { offset: 0xDF1F, size: 0x8, addend: 0x0, symName: __ZNKSt6vectorISt4pairIdS_IiSaIiEEESaIS3_EE12_M_check_lenEmPKc, symObjAddr: 0x2FF8, symBinAddr: 0x100006C18, symSize: 0xD0 }
  - { offset: 0xDFB1, size: 0x8, addend: 0x0, symName: __ZSt4copyIN9__gnu_cxx17__normal_iteratorIPKiSt6vectorIiSaIiEEEEPiET0_T_SA_S9_, symObjAddr: 0x2FB0, symBinAddr: 0x100006BD0, symSize: 0x48 }
  - { offset: 0xE00F, size: 0x8, addend: 0x0, symName: __ZNSt15__new_allocatorIiE10deallocateEPim, symObjAddr: 0x2F80, symBinAddr: 0x100006BA0, symSize: 0x30 }
  - { offset: 0xE06A, size: 0x8, addend: 0x0, symName: __ZSt8_DestroyISt6vectorIiSaIiEEEvPT_, symObjAddr: 0x2F60, symBinAddr: 0x100006B80, symSize: 0x20 }
  - { offset: 0xE09A, size: 0x8, addend: 0x0, symName: __ZSt11__addressofISt6vectorIiSaIiEEEPT_RS3_, symObjAddr: 0x2F4C, symBinAddr: 0x100006B6C, symSize: 0x14 }
  - { offset: 0xE0CA, size: 0x8, addend: 0x0, symName: __ZSt8_DestroyISt4pairIdSt6vectorIiSaIiEEEEvPT_, symObjAddr: 0x2F2C, symBinAddr: 0x100006B4C, symSize: 0x20 }
  - { offset: 0xE0FA, size: 0x8, addend: 0x0, symName: __ZSt11__addressofISt4pairIdSt6vectorIiSaIiEEEEPT_RS5_, symObjAddr: 0x2F18, symBinAddr: 0x100006B38, symSize: 0x14 }
  - { offset: 0xE12E, size: 0x8, addend: 0x0, symName: __ZNSt15__new_allocatorISt4pairIdSt6vectorIiSaIiEEEE10deallocateEPS4_m, symObjAddr: 0x2EE8, symBinAddr: 0x100006B08, symSize: 0x30 }
  - { offset: 0xE170, size: 0x8, addend: 0x0, symName: __ZSt18uninitialized_copyIPKSt6vectorIiSaIiEEPS2_ET0_T_S7_S6_, symObjAddr: 0x2EB4, symBinAddr: 0x100006AD4, symSize: 0x34 }
  - { offset: 0xE1E5, size: 0x8, addend: 0x0, symName: __ZNSt6vectorIS_IiSaIiEESaIS1_EE11_S_max_sizeERKS2_, symObjAddr: 0x2E58, symBinAddr: 0x100006A78, symSize: 0x5C }
  - { offset: 0xE292, size: 0x8, addend: 0x0, symName: __ZSt18uninitialized_copyIPKiPiET0_T_S4_S3_, symObjAddr: 0x2E1C, symBinAddr: 0x100006A3C, symSize: 0x3C }
  - { offset: 0xE328, size: 0x8, addend: 0x0, symName: __ZNSt6vectorIiSaIiEE11_S_max_sizeERKS0_, symObjAddr: 0x2DC8, symBinAddr: 0x1000069E8, symSize: 0x54 }
  - { offset: 0xE3D5, size: 0x8, addend: 0x0, symName: __ZSt12__relocate_aIPSt6vectorIiSaIiEES3_SaIS2_EET0_T_S6_S5_RT1_, symObjAddr: 0x2D6C, symBinAddr: 0x10000698C, symSize: 0x5C }
  - { offset: 0xE46D, size: 0x8, addend: 0x0, symName: __ZNK9__gnu_cxx17__normal_iteratorIPSt6vectorIiSaIiEES1_IS3_SaIS3_EEE4baseEv, symObjAddr: 0x2D58, symBinAddr: 0x100006978, symSize: 0x14 }
  - { offset: 0xE4BA, size: 0x8, addend: 0x0, symName: __ZN9__gnu_cxx17__normal_iteratorIPSt6vectorIiSaIiEES1_IS3_SaIS3_EEEC1ERKS4_, symObjAddr: 0x2D30, symBinAddr: 0x100006950, symSize: 0x28 }
  - { offset: 0xE4E2, size: 0x8, addend: 0x0, symName: __ZSt3maxImERKT_S2_S2_, symObjAddr: 0x2CF8, symBinAddr: 0x100006918, symSize: 0x38 }
  - { offset: 0xE527, size: 0x8, addend: 0x0, symName: __ZNKSt6vectorIS_IiSaIiEESaIS1_EE8max_sizeEv, symObjAddr: 0x2CD8, symBinAddr: 0x1000068F8, symSize: 0x20 }
  - { offset: 0xE54F, size: 0x8, addend: 0x0, symName: __ZNK9__gnu_cxx17__normal_iteratorIPKSt4pairIdSt6vectorIiSaIiEEES2_IS5_SaIS5_EEE4baseEv, symObjAddr: 0x2CC4, symBinAddr: 0x1000068E4, symSize: 0x14 }
  - { offset: 0xE59C, size: 0x8, addend: 0x0, symName: __ZN9__gnu_cxx17__normal_iteratorIPKSt4pairIdSt6vectorIiSaIiEEES2_IS5_SaIS5_EEEC1ERKS7_, symObjAddr: 0x2C9C, symBinAddr: 0x1000068BC, symSize: 0x28 }
  - { offset: 0xE5ED, size: 0x8, addend: 0x0, symName: __ZSt13__adjust_heapIN9__gnu_cxx17__normal_iteratorIPSt4pairIdSt6vectorIiSaIiEEES3_IS6_SaIS6_EEEElS6_NS0_5__ops15_Iter_comp_iterISt4lessIvEEEEvT_T0_SH_T1_T2_, symObjAddr: 0x2A98, symBinAddr: 0x1000066B8, symSize: 0x204 }
  - { offset: 0xE6AC, size: 0x8, addend: 0x0, symName: __ZNSt4pairIdSt6vectorIiSaIiEEEaSEOS3_, symObjAddr: 0x2A4C, symBinAddr: 0x10000666C, symSize: 0x4C }
  - { offset: 0xE6E4, size: 0x8, addend: 0x0, symName: __ZN9__gnu_cxx5__ops14_Iter_comp_valISt4lessIvEEclINS_17__normal_iteratorIPSt4pairIdSt6vectorIiSaIiEEES8_ISB_SaISB_EEEESB_EEbT_RT0_, symObjAddr: 0x2A0C, symBinAddr: 0x10000662C, symSize: 0x40 }
  - { offset: 0xE73C, size: 0x8, addend: 0x0, symName: __ZNK9__gnu_cxx17__normal_iteratorIPSt4pairIdSt6vectorIiSaIiEEES2_IS5_SaIS5_EEEplEl, symObjAddr: 0x29CC, symBinAddr: 0x1000065EC, symSize: 0x40 }
  - { offset: 0xE774, size: 0x8, addend: 0x0, symName: __ZNK9__gnu_cxx17__normal_iteratorIPSt4pairIdSt6vectorIiSaIiEEES2_IS5_SaIS5_EEE4baseEv, symObjAddr: 0x29B8, symBinAddr: 0x1000065D8, symSize: 0x14 }
  - { offset: 0xE7C0, size: 0x8, addend: 0x0, symName: __ZNSt12_Vector_baseIiSaIiEE17_Vector_impl_dataC2EOS2_, symObjAddr: 0x2948, symBinAddr: 0x100006568, symSize: 0x70 }
  - { offset: 0xE7F4, size: 0x8, addend: 0x0, symName: __ZSt4moveIRNSt12_Vector_baseIiSaIiEE12_Vector_implEEONSt16remove_referenceIT_E4typeEOS6_, symObjAddr: 0x2934, symBinAddr: 0x100006554, symSize: 0x14 }
  - { offset: 0xE828, size: 0x8, addend: 0x0, symName: __ZNSt6vectorISt4pairIdS_IiSaIiEEESaIS3_EE4backEv, symObjAddr: 0x28FC, symBinAddr: 0x10000651C, symSize: 0x38 }
  - { offset: 0xE850, size: 0x8, addend: 0x0, symName: __ZNSt6vectorISt4pairIdS_IiSaIiEEESaIS3_EE17_M_realloc_appendIJS3_EEEvDpOT_, symObjAddr: 0x273C, symBinAddr: 0x10000635C, symSize: 0x1C0 }
  - { offset: 0xE9C4, size: 0x8, addend: 0x0, symName: __ZZNSt6vectorISt4pairIdS_IiSaIiEEESaIS3_EE17_M_realloc_appendIJS3_EEEvDpOT_EN6_GuardC1EPS3_mRS4_, symObjAddr: 0x2698, symBinAddr: 0x1000062B8, symSize: 0x44 }
  - { offset: 0xEA04, size: 0x8, addend: 0x0, symName: __ZZNSt6vectorISt4pairIdS_IiSaIiEEESaIS3_EE17_M_realloc_appendIJS3_EEEvDpOT_EN6_GuardD1Ev, symObjAddr: 0x26DC, symBinAddr: 0x1000062FC, symSize: 0x60 }
  - { offset: 0xEB2A, size: 0x8, addend: 0x0, symName: __ZSt7forwardISt4pairIdSt6vectorIiSaIiEEEEOT_RNSt16remove_referenceIS5_E4typeE, symObjAddr: 0x2684, symBinAddr: 0x1000062A4, symSize: 0x14 }
  - { offset: 0xEB5A, size: 0x8, addend: 0x0, symName: __ZNSt12_Destroy_auxILb1EE9__destroyIPiEEvT_S3_, symObjAddr: 0x266C, symBinAddr: 0x10000628C, symSize: 0x18 }
  - { offset: 0xEB8B, size: 0x8, addend: 0x0, symName: __ZNSt20__uninitialized_copyILb1EE13__uninit_copyIN9__gnu_cxx17__normal_iteratorIPKiSt6vectorIiSaIiEEEEPiEET0_T_SC_SB_, symObjAddr: 0x2640, symBinAddr: 0x100006260, symSize: 0x2C }
  - { offset: 0xEC2C, size: 0x8, addend: 0x0, symName: __ZNSt12_Vector_baseIiSaIiEE17_Vector_impl_dataC1Ev, symObjAddr: 0x2614, symBinAddr: 0x100006234, symSize: 0x2C }
  - { offset: 0xEC54, size: 0x8, addend: 0x0, symName: __ZNSt12_Vector_baseIiSaIiEE17_Vector_impl_dataC2Ev, symObjAddr: 0x25E8, symBinAddr: 0x100006208, symSize: 0x2C }
  - { offset: 0xEC94, size: 0x8, addend: 0x0, symName: __ZNSt12_Destroy_auxILb0EE9__destroyIPSt6vectorIiSaIiEEEEvT_S6_, symObjAddr: 0x259C, symBinAddr: 0x1000061BC, symSize: 0x4C }
  - { offset: 0xECD7, size: 0x8, addend: 0x0, symName: __ZNSt15__new_allocatorISt6vectorIiSaIiEEE10deallocateEPS2_m, symObjAddr: 0x2560, symBinAddr: 0x100006180, symSize: 0x3C }
  - { offset: 0xED19, size: 0x8, addend: 0x0, symName: __ZNSt12_Destroy_auxILb0EE9__destroyIPSt4pairIdSt6vectorIiSaIiEEEEEvT_S8_, symObjAddr: 0x2514, symBinAddr: 0x100006134, symSize: 0x4C }
  - { offset: 0xED9A, size: 0x8, addend: 0x0, symName: __ZSt22__uninitialized_copy_aIPKSt6vectorIiSaIiEEPS2_S2_ET0_T_S7_S6_RSaIT1_E, symObjAddr: 0x24E4, symBinAddr: 0x100006104, symSize: 0x30 }
  - { offset: 0xEE05, size: 0x8, addend: 0x0, symName: __ZNSt6vectorIS_IiSaIiEESaIS1_EE17_S_check_init_lenEmRKS2_, symObjAddr: 0x2460, symBinAddr: 0x100006080, symSize: 0x84 }
  - { offset: 0xEEFA, size: 0x8, addend: 0x0, symName: __ZNKSt16initializer_listISt6vectorIiSaIiEEE4sizeEv, symObjAddr: 0x2448, symBinAddr: 0x100006068, symSize: 0x18 }
  - { offset: 0xEF46, size: 0x8, addend: 0x0, symName: __ZNSt12_Vector_baseISt6vectorIiSaIiEESaIS2_EE12_Vector_implC1ERKS3_, symObjAddr: 0x23FC, symBinAddr: 0x10000601C, symSize: 0x4C }
  - { offset: 0xEFC0, size: 0x8, addend: 0x0, symName: __ZSt22__uninitialized_copy_aIPKiPiiET0_T_S4_S3_RSaIT1_E, symObjAddr: 0x23CC, symBinAddr: 0x100005FEC, symSize: 0x30 }
  - { offset: 0xF02F, size: 0x8, addend: 0x0, symName: __ZNSt12_Vector_baseIiSaIiEE11_M_allocateEm, symObjAddr: 0x237C, symBinAddr: 0x100005F9C, symSize: 0x50 }
  - { offset: 0xF08D, size: 0x8, addend: 0x0, symName: __ZNSt6vectorIiSaIiEE17_S_check_init_lenEmRKS0_, symObjAddr: 0x22F8, symBinAddr: 0x100005F18, symSize: 0x84 }
  - { offset: 0xF17C, size: 0x8, addend: 0x0, symName: __ZNKSt16initializer_listIiE4sizeEv, symObjAddr: 0x22E0, symBinAddr: 0x100005F00, symSize: 0x18 }
  - { offset: 0xF1B9, size: 0x8, addend: 0x0, symName: __ZNSt6vectorIS_IiSaIiEESaIS1_EE11_S_relocateEPS1_S4_S4_RS2_, symObjAddr: 0x22AC, symBinAddr: 0x100005ECC, symSize: 0x34 }
  - { offset: 0xF211, size: 0x8, addend: 0x0, symName: __ZSt12__to_addressISt6vectorIiSaIiEEEPT_S4_, symObjAddr: 0x2298, symBinAddr: 0x100005EB8, symSize: 0x14 }
  - { offset: 0xF245, size: 0x8, addend: 0x0, symName: __ZNSt12_Vector_baseISt6vectorIiSaIiEESaIS2_EE11_M_allocateEm, symObjAddr: 0x2248, symBinAddr: 0x100005E68, symSize: 0x50 }
  - { offset: 0xF2A9, size: 0x8, addend: 0x0, symName: __ZN9__gnu_cxxmiIPSt6vectorIiSaIiEES1_IS3_SaIS3_EEEENS_17__normal_iteratorIT_T0_E15difference_typeERKSA_SD_, symObjAddr: 0x21FC, symBinAddr: 0x100005E1C, symSize: 0x4C }
  - { offset: 0xF2F7, size: 0x8, addend: 0x0, symName: __ZNSt6vectorIS_IiSaIiEESaIS1_EE5beginEv, symObjAddr: 0x21D8, symBinAddr: 0x100005DF8, symSize: 0x24 }
  - { offset: 0xF31F, size: 0x8, addend: 0x0, symName: __ZNSt6vectorIS_IiSaIiEESaIS1_EE3endEv, symObjAddr: 0x21B0, symBinAddr: 0x100005DD0, symSize: 0x28 }
  - { offset: 0xF347, size: 0x8, addend: 0x0, symName: __ZNKSt6vectorIS_IiSaIiEESaIS1_EE12_M_check_lenEmPKc, symObjAddr: 0x20E0, symBinAddr: 0x100005D00, symSize: 0xD0 }
  - { offset: 0xF3DF, size: 0x8, addend: 0x0, symName: __ZSt7forwardIRKSt6vectorIiSaIiEEEOT_RNSt16remove_referenceIS5_E4typeE, symObjAddr: 0x20CC, symBinAddr: 0x100005CEC, symSize: 0x14 }
  - { offset: 0xF413, size: 0x8, addend: 0x0, symName: __ZNK9__gnu_cxx17__normal_iteratorIPKSt4pairIdSt6vectorIiSaIiEEES2_IS5_SaIS5_EEEdeEv, symObjAddr: 0x20B4, symBinAddr: 0x100005CD4, symSize: 0x18 }
  - { offset: 0xF43D, size: 0x8, addend: 0x0, symName: __ZN9__gnu_cxxeqIPKSt4pairIdSt6vectorIiSaIiEEES2_IS5_SaIS5_EEEEbRKNS_17__normal_iteratorIT_T0_EESF_, symObjAddr: 0x2070, symBinAddr: 0x100005C90, symSize: 0x44 }
  - { offset: 0xF48B, size: 0x8, addend: 0x0, symName: __ZNKSt6vectorISt4pairIdS_IiSaIiEEESaIS3_EE3endEv, symObjAddr: 0x2048, symBinAddr: 0x100005C68, symSize: 0x28 }
  - { offset: 0xF4B3, size: 0x8, addend: 0x0, symName: __ZNKSt6vectorISt4pairIdS_IiSaIiEEESaIS3_EE5beginEv, symObjAddr: 0x2024, symBinAddr: 0x100005C44, symSize: 0x24 }
  - { offset: 0xF501, size: 0x8, addend: 0x0, symName: __ZSt10__pop_heapIN9__gnu_cxx17__normal_iteratorIPSt4pairIdSt6vectorIiSaIiEEES3_IS6_SaIS6_EEEENS0_5__ops15_Iter_comp_iterISt4lessIvEEEEvT_SG_SG_RT0_, symObjAddr: 0x1F50, symBinAddr: 0x100005B70, symSize: 0xD4 }
  - { offset: 0xF599, size: 0x8, addend: 0x0, symName: __ZN9__gnu_cxx17__normal_iteratorIPSt4pairIdSt6vectorIiSaIiEEES2_IS5_SaIS5_EEEmmEv, symObjAddr: 0x1F28, symBinAddr: 0x100005B48, symSize: 0x28 }
  - { offset: 0xF5C3, size: 0x8, addend: 0x0, symName: __ZSt11__push_heapIN9__gnu_cxx17__normal_iteratorIPSt4pairIdSt6vectorIiSaIiEEES3_IS6_SaIS6_EEEElS6_NS0_5__ops14_Iter_comp_valISt4lessIvEEEEvT_T0_SH_T1_RT2_, symObjAddr: 0x1E00, symBinAddr: 0x100005A20, symSize: 0x128 }
  - { offset: 0xF661, size: 0x8, addend: 0x0, symName: __ZN9__gnu_cxxmiIPSt4pairIdSt6vectorIiSaIiEEES2_IS5_SaIS5_EEEENS_17__normal_iteratorIT_T0_E15difference_typeERKSC_SF_, symObjAddr: 0x1DC0, symBinAddr: 0x1000059E0, symSize: 0x40 }
  - { offset: 0xF6D3, size: 0x8, addend: 0x0, symName: __ZNSt12_Vector_baseIiSaIiEE12_Vector_implC1EOS2_, symObjAddr: 0x1D54, symBinAddr: 0x100005974, symSize: 0x6C }
  - { offset: 0xF751, size: 0x8, addend: 0x0, symName: __ZNK9__gnu_cxx17__normal_iteratorIPSt4pairIdSt6vectorIiSaIiEEES2_IS5_SaIS5_EEEdeEv, symObjAddr: 0x1D3C, symBinAddr: 0x10000595C, symSize: 0x18 }
  - { offset: 0xF779, size: 0x8, addend: 0x0, symName: __ZNK9__gnu_cxx17__normal_iteratorIPSt4pairIdSt6vectorIiSaIiEEES2_IS5_SaIS5_EEEmiEl, symObjAddr: 0x1CF8, symBinAddr: 0x100005918, symSize: 0x44 }
  - { offset: 0xF7D5, size: 0x8, addend: 0x0, symName: __ZN9__gnu_cxx5__ops14_Iter_comp_valISt4lessIvEEC1ES3_, symObjAddr: 0x1CD4, symBinAddr: 0x1000058F4, symSize: 0x24 }
  - { offset: 0xF826, size: 0x8, addend: 0x0, symName: __ZN9__gnu_cxx17__normal_iteratorIPSt4pairIdSt6vectorIiSaIiEEES2_IS5_SaIS5_EEEC1ERKS6_, symObjAddr: 0x1CAC, symBinAddr: 0x1000058CC, symSize: 0x28 }
  - { offset: 0xF852, size: 0x8, addend: 0x0, symName: __ZNSt6vectorISt4pairIdS_IiSaIiEEESaIS3_EE12emplace_backIJS3_EEERS3_DpOT_, symObjAddr: 0x1BD0, symBinAddr: 0x1000057F0, symSize: 0xDC }
  - { offset: 0xF8F1, size: 0x8, addend: 0x0, symName: __ZSt8_DestroyIPiEvT_S1_, symObjAddr: 0x1BA8, symBinAddr: 0x1000057C8, symSize: 0x28 }
  - { offset: 0xF930, size: 0x8, addend: 0x0, symName: __ZSt18uninitialized_copyIN9__gnu_cxx17__normal_iteratorIPKiSt6vectorIiSaIiEEEEPiET0_T_SA_S9_, symObjAddr: 0x1B6C, symBinAddr: 0x10000578C, symSize: 0x3C }
  - { offset: 0xF9CE, size: 0x8, addend: 0x0, symName: __ZN9__gnu_cxx17__normal_iteratorIPKiSt6vectorIiSaIiEEEC1ERKS2_, symObjAddr: 0x1B44, symBinAddr: 0x100005764, symSize: 0x28 }
  - { offset: 0xF9FA, size: 0x8, addend: 0x0, symName: __ZNSt12_Vector_baseIiSaIiEE13_M_deallocateEPim, symObjAddr: 0x1AEC, symBinAddr: 0x10000570C, symSize: 0x58 }
  - { offset: 0xFA74, size: 0x8, addend: 0x0, symName: __ZNSt12_Vector_baseIiSaIiEE17_M_create_storageEm, symObjAddr: 0x1A8C, symBinAddr: 0x1000056AC, symSize: 0x60 }
  - { offset: 0xFAD0, size: 0x8, addend: 0x0, symName: __ZNSt12_Vector_baseIiSaIiEE12_Vector_implC1ERKS0_, symObjAddr: 0x1A40, symBinAddr: 0x100005660, symSize: 0x4C }
  - { offset: 0xFB5E, size: 0x8, addend: 0x0, symName: __ZSt8_DestroyIPSt6vectorIiSaIiEEEvT_S4_, symObjAddr: 0x1A18, symBinAddr: 0x100005638, symSize: 0x28 }
  - { offset: 0xFBCB, size: 0x8, addend: 0x0, symName: __ZSt8_DestroyIPSt4pairIdSt6vectorIiSaIiEEEEvT_S6_, symObjAddr: 0x19F0, symBinAddr: 0x100005610, symSize: 0x28 }
  - { offset: 0xFC0E, size: 0x8, addend: 0x0, symName: __ZNSt12_Vector_baseISt4pairIdSt6vectorIiSaIiEEESaIS4_EE13_M_deallocateEPS4_m, symObjAddr: 0x1998, symBinAddr: 0x1000055B8, symSize: 0x58 }
  - { offset: 0xFCA9, size: 0x8, addend: 0x0, symName: __ZNSt15__new_allocatorISt4pairIdSt6vectorIiSaIiEEEED2Ev, symObjAddr: 0x1984, symBinAddr: 0x1000055A4, symSize: 0x14 }
  - { offset: 0xFCE5, size: 0x8, addend: 0x0, symName: __ZNSt12_Vector_baseISt4pairIdSt6vectorIiSaIiEEESaIS4_EE17_Vector_impl_dataC2Ev, symObjAddr: 0x1958, symBinAddr: 0x100005578, symSize: 0x2C }
  - { offset: 0xFD1D, size: 0x8, addend: 0x0, symName: __ZNSt6vectorIS_IiSaIiEESaIS1_EE19_M_range_initializeIPKS1_EEvT_S7_St20forward_iterator_tag, symObjAddr: 0x185C, symBinAddr: 0x10000547C, symSize: 0xFC }
  - { offset: 0xFE2A, size: 0x8, addend: 0x0, symName: __ZNKSt16initializer_listISt6vectorIiSaIiEEE3endEv, symObjAddr: 0x1814, symBinAddr: 0x100005434, symSize: 0x48 }
  - { offset: 0xFE52, size: 0x8, addend: 0x0, symName: __ZNKSt16initializer_listISt6vectorIiSaIiEEE5beginEv, symObjAddr: 0x17FC, symBinAddr: 0x10000541C, symSize: 0x18 }
  - { offset: 0xFE9F, size: 0x8, addend: 0x0, symName: __ZNSt12_Vector_baseISt6vectorIiSaIiEESaIS2_EEC2ERKS3_, symObjAddr: 0x17D4, symBinAddr: 0x1000053F4, symSize: 0x28 }
  - { offset: 0xFEDF, size: 0x8, addend: 0x0, symName: __ZNSt6vectorIiSaIiEE19_M_range_initializeIPKiEEvT_S5_St20forward_iterator_tag, symObjAddr: 0x16F0, symBinAddr: 0x100005310, symSize: 0xE4 }
  - { offset: 0xFFEC, size: 0x8, addend: 0x0, symName: __ZNKSt16initializer_listIiE3endEv, symObjAddr: 0x16B8, symBinAddr: 0x1000052D8, symSize: 0x38 }
  - { offset: 0x10014, size: 0x8, addend: 0x0, symName: __ZNKSt16initializer_listIiE5beginEv, symObjAddr: 0x16A0, symBinAddr: 0x1000052C0, symSize: 0x18 }
  - { offset: 0x10061, size: 0x8, addend: 0x0, symName: __ZNSt12_Vector_baseIiSaIiEEC2ERKS0_, symObjAddr: 0x1678, symBinAddr: 0x100005298, symSize: 0x28 }
  - { offset: 0x100AE, size: 0x8, addend: 0x0, symName: __ZNSt15__new_allocatorIiED2Ev, symObjAddr: 0x1664, symBinAddr: 0x100005284, symSize: 0x14 }
  - { offset: 0x10106, size: 0x8, addend: 0x0, symName: __ZNSt6vectorIS_IiSaIiEESaIS1_EE17_M_realloc_appendIJRKS1_EEEvDpOT_, symObjAddr: 0x143C, symBinAddr: 0x10000505C, symSize: 0x228 }
  - { offset: 0x1027A, size: 0x8, addend: 0x0, symName: __ZZNSt6vectorIS_IiSaIiEESaIS1_EE17_M_realloc_appendIJRKS1_EEEvDpOT_EN6_GuardC1EPS1_mRS2_, symObjAddr: 0x1398, symBinAddr: 0x100004FB8, symSize: 0x44 }
  - { offset: 0x102BA, size: 0x8, addend: 0x0, symName: __ZZNSt6vectorIS_IiSaIiEESaIS1_EE17_M_realloc_appendIJRKS1_EEEvDpOT_EN6_GuardD1Ev, symObjAddr: 0x13DC, symBinAddr: 0x100004FFC, symSize: 0x60 }
  - { offset: 0x103DB, size: 0x8, addend: 0x0, symName: __ZNKSt6vectorISt4pairIdS_IiSaIiEEESaIS3_EE5frontEv, symObjAddr: 0x1370, symBinAddr: 0x100004F90, symSize: 0x28 }
  - { offset: 0x10403, size: 0x8, addend: 0x0, symName: __ZNKSt6vectorISt4pairIdS_IiSaIiEEESaIS3_EE5emptyEv, symObjAddr: 0x1338, symBinAddr: 0x100004F58, symSize: 0x38 }
  - { offset: 0x1042B, size: 0x8, addend: 0x0, symName: __ZNSt6vectorISt4pairIdS_IiSaIiEEESaIS3_EE8pop_backEv, symObjAddr: 0x12D8, symBinAddr: 0x100004EF8, symSize: 0x60 }
  - { offset: 0x104A3, size: 0x8, addend: 0x0, symName: __ZSt8pop_heapIN9__gnu_cxx17__normal_iteratorIPSt4pairIdSt6vectorIiSaIiEEES3_IS6_SaIS6_EEEESt4lessIvEEvT_SD_T0_, symObjAddr: 0x1274, symBinAddr: 0x100004E94, symSize: 0x64 }
  - { offset: 0x1052C, size: 0x8, addend: 0x0, symName: __ZSt4moveIRSt4lessIvEEONSt16remove_referenceIT_E4typeEOS4_, symObjAddr: 0x1260, symBinAddr: 0x100004E80, symSize: 0x14 }
  - { offset: 0x10560, size: 0x8, addend: 0x0, symName: __ZNKSt6vectorISt4pairIdS_IiSaIiEEESaIS3_EE4sizeEv, symObjAddr: 0x1238, symBinAddr: 0x100004E58, symSize: 0x28 }
  - { offset: 0x10584, size: 0x8, addend: 0x0, symName: __ZSt9push_heapIN9__gnu_cxx17__normal_iteratorIPSt4pairIdSt6vectorIiSaIiEEES3_IS6_SaIS6_EEEESt4lessIvEEvT_SD_T0_, symObjAddr: 0x1164, symBinAddr: 0x100004D84, symSize: 0xD4 }
  - { offset: 0x10636, size: 0x8, addend: 0x0, symName: __ZNSt4pairIdSt6vectorIiSaIiEEEC1EOS3_, symObjAddr: 0x111C, symBinAddr: 0x100004D3C, symSize: 0x48 }
  - { offset: 0x1067F, size: 0x8, addend: 0x0, symName: __ZNSt6vectorIiSaIiEEC1EOS1_, symObjAddr: 0x10F4, symBinAddr: 0x100004D14, symSize: 0x28 }
  - { offset: 0x106C8, size: 0x8, addend: 0x0, symName: __ZNSt12_Vector_baseIiSaIiEEC2EOS1_, symObjAddr: 0x10CC, symBinAddr: 0x100004CEC, symSize: 0x28 }
  - { offset: 0x106F4, size: 0x8, addend: 0x0, symName: __ZNSt6vectorISt4pairIdS_IiSaIiEEESaIS3_EE3endEv, symObjAddr: 0x10A4, symBinAddr: 0x100004CC4, symSize: 0x28 }
  - { offset: 0x1071C, size: 0x8, addend: 0x0, symName: __ZNSt6vectorISt4pairIdS_IiSaIiEEESaIS3_EE5beginEv, symObjAddr: 0x1080, symBinAddr: 0x100004CA0, symSize: 0x24 }
  - { offset: 0x10744, size: 0x8, addend: 0x0, symName: __ZNSt6vectorISt4pairIdS_IiSaIiEEESaIS3_EE9push_backEOS3_, symObjAddr: 0x1050, symBinAddr: 0x100004C70, symSize: 0x30 }
  - { offset: 0x1077E, size: 0x8, addend: 0x0, symName: __ZSt4moveIRSt4pairIdSt6vectorIiSaIiEEEEONSt16remove_referenceIT_E4typeEOS7_, symObjAddr: 0x103C, symBinAddr: 0x100004C5C, symSize: 0x14 }
  - { offset: 0x107B4, size: 0x8, addend: 0x0, symName: __ZSt7forwardIRSt6vectorIiSaIiEEEOT_RNSt16remove_referenceIS4_E4typeE, symObjAddr: 0x1028, symBinAddr: 0x100004C48, symSize: 0x14 }
  - { offset: 0x107EA, size: 0x8, addend: 0x0, symName: __ZSt7forwardIRdEOT_RNSt16remove_referenceIS1_E4typeE, symObjAddr: 0x1014, symBinAddr: 0x100004C34, symSize: 0x14 }
  - { offset: 0x10852, size: 0x8, addend: 0x0, symName: __ZSt22__uninitialized_copy_aIN9__gnu_cxx17__normal_iteratorIPKiSt6vectorIiSaIiEEEEPiiET0_T_SA_S9_RSaIT1_E, symObjAddr: 0xFE4, symBinAddr: 0x100004C04, symSize: 0x30 }
  - { offset: 0x108C1, size: 0x8, addend: 0x0, symName: __ZNSt12_Vector_baseIiSaIiEE19_M_get_Tp_allocatorEv, symObjAddr: 0xFD0, symBinAddr: 0x100004BF0, symSize: 0x14 }
  - { offset: 0x108E9, size: 0x8, addend: 0x0, symName: __ZNKSt6vectorIiSaIiEE3endEv, symObjAddr: 0xFA8, symBinAddr: 0x100004BC8, symSize: 0x28 }
  - { offset: 0x10911, size: 0x8, addend: 0x0, symName: __ZNKSt6vectorIiSaIiEE5beginEv, symObjAddr: 0xF84, symBinAddr: 0x100004BA4, symSize: 0x24 }
  - { offset: 0x1095A, size: 0x8, addend: 0x0, symName: __ZNSt12_Vector_baseIiSaIiEED2Ev, symObjAddr: 0xF34, symBinAddr: 0x100004B54, symSize: 0x50 }
  - { offset: 0x109B0, size: 0x8, addend: 0x0, symName: __ZNSt12_Vector_baseIiSaIiEEC2EmRKS0_, symObjAddr: 0xEE0, symBinAddr: 0x100004B00, symSize: 0x54 }
  - { offset: 0x10A09, size: 0x8, addend: 0x0, symName: __ZNSt12_Vector_baseIiSaIiEE12_Vector_implD1Ev, symObjAddr: 0xEB4, symBinAddr: 0x100004AD4, symSize: 0x2C }
  - { offset: 0x10A61, size: 0x8, addend: 0x0, symName: __ZNKSt12_Vector_baseIiSaIiEE19_M_get_Tp_allocatorEv, symObjAddr: 0xEA0, symBinAddr: 0x100004AC0, symSize: 0x14 }
  - { offset: 0x10A89, size: 0x8, addend: 0x0, symName: __ZNKSt6vectorIiSaIiEE4sizeEv, symObjAddr: 0xE78, symBinAddr: 0x100004A98, symSize: 0x28 }
  - { offset: 0x10AE9, size: 0x8, addend: 0x0, symName: __ZNSt12_Vector_baseISt6vectorIiSaIiEESaIS2_EE19_M_get_Tp_allocatorEv, symObjAddr: 0xE64, symBinAddr: 0x100004A84, symSize: 0x14 }
  - { offset: 0x10B11, size: 0x8, addend: 0x0, symName: __ZNSt12_Vector_baseISt6vectorIiSaIiEESaIS2_EE13_M_deallocateEPS2_m, symObjAddr: 0xE0C, symBinAddr: 0x100004A2C, symSize: 0x58 }
  - { offset: 0x10BAC, size: 0x8, addend: 0x0, symName: __ZNSt15__new_allocatorISt6vectorIiSaIiEEED2Ev, symObjAddr: 0xDF8, symBinAddr: 0x100004A18, symSize: 0x14 }
  - { offset: 0x10BE8, size: 0x8, addend: 0x0, symName: __ZNSt12_Vector_baseISt6vectorIiSaIiEESaIS2_EE17_Vector_impl_dataC2Ev, symObjAddr: 0xDCC, symBinAddr: 0x1000049EC, symSize: 0x2C }
  - { offset: 0x10C44, size: 0x8, addend: 0x0, symName: __ZNSt12_Vector_baseISt4pairIdSt6vectorIiSaIiEEESaIS4_EE19_M_get_Tp_allocatorEv, symObjAddr: 0xDB8, symBinAddr: 0x1000049D8, symSize: 0x14 }
  - { offset: 0x10C8D, size: 0x8, addend: 0x0, symName: __ZNSt12_Vector_baseISt4pairIdSt6vectorIiSaIiEEESaIS4_EED2Ev, symObjAddr: 0xD68, symBinAddr: 0x100004988, symSize: 0x50 }
  - { offset: 0x10CE6, size: 0x8, addend: 0x0, symName: __ZNSt12_Vector_baseISt4pairIdSt6vectorIiSaIiEEESaIS4_EE12_Vector_implC1Ev, symObjAddr: 0xD30, symBinAddr: 0x100004950, symSize: 0x38 }
  - { offset: 0x10D7E, size: 0x8, addend: 0x0, symName: __ZNSt6vectorIS_IiSaIiEESaIS1_EEC1ESt16initializer_listIS1_ERKS2_, symObjAddr: 0xCC0, symBinAddr: 0x1000048E0, symSize: 0x70 }
  - { offset: 0x10DF8, size: 0x8, addend: 0x0, symName: __ZNSt6vectorIiSaIiEEC1ESt16initializer_listIiERKS0_, symObjAddr: 0xC50, symBinAddr: 0x100004870, symSize: 0x70 }
  - { offset: 0x10E5D, size: 0x8, addend: 0x0, symName: __ZNSt6vectorIS_IiSaIiEESaIS1_EE9push_backERKS1_, symObjAddr: 0xB54, symBinAddr: 0x100004774, symSize: 0xFC }
  - { offset: 0x10EF3, size: 0x8, addend: 0x0, symName: __ZNKSt14priority_queueISt4pairIdSt6vectorIiSaIiEEES1_IS4_SaIS4_EESt4lessIvEE3topEv, symObjAddr: 0xB38, symBinAddr: 0x100004758, symSize: 0x1C }
  - { offset: 0x10F1B, size: 0x8, addend: 0x0, symName: __ZNKSt14priority_queueISt4pairIdSt6vectorIiSaIiEEES1_IS4_SaIS4_EESt4lessIvEE5emptyEv, symObjAddr: 0xB1C, symBinAddr: 0x10000473C, symSize: 0x1C }
  - { offset: 0x10F43, size: 0x8, addend: 0x0, symName: __ZNSt14priority_queueISt4pairIdSt6vectorIiSaIiEEES1_IS4_SaIS4_EESt4lessIvEE3popEv, symObjAddr: 0xAD0, symBinAddr: 0x1000046F0, symSize: 0x4C }
  - { offset: 0x10F6B, size: 0x8, addend: 0x0, symName: __ZNKSt14priority_queueISt4pairIdSt6vectorIiSaIiEEES1_IS4_SaIS4_EESt4lessIvEE4sizeEv, symObjAddr: 0xAB4, symBinAddr: 0x1000046D4, symSize: 0x1C }
  - { offset: 0x10F93, size: 0x8, addend: 0x0, symName: __ZNSt14priority_queueISt4pairIdSt6vectorIiSaIiEEES1_IS4_SaIS4_EESt4lessIvEE4pushEOS4_, symObjAddr: 0xA54, symBinAddr: 0x100004674, symSize: 0x60 }
  - { offset: 0x1100F, size: 0x8, addend: 0x0, symName: __ZNSt4pairIdSt6vectorIiSaIiEEEC1IRdRS2_Lb1EEEOT_OT0_, symObjAddr: 0x9FC, symBinAddr: 0x10000461C, symSize: 0x58 }
  - { offset: 0x11076, size: 0x8, addend: 0x0, symName: __ZNSt6vectorIiSaIiEED1Ev, symObjAddr: 0x9A0, symBinAddr: 0x1000045C0, symSize: 0x5C }
  - { offset: 0x110F1, size: 0x8, addend: 0x0, symName: __ZNSt6vectorIiSaIiEEC1ERKS1_, symObjAddr: 0x88C, symBinAddr: 0x1000044AC, symSize: 0x114 }
  - { offset: 0x111F5, size: 0x8, addend: 0x0, symName: __ZNSt6vectorIS_IiSaIiEESaIS1_EEixEm, symObjAddr: 0x858, symBinAddr: 0x100004478, symSize: 0x34 }
  - { offset: 0x1122D, size: 0x8, addend: 0x0, symName: __ZNKSt6vectorIS_IiSaIiEESaIS1_EE4sizeEv, symObjAddr: 0x824, symBinAddr: 0x100004444, symSize: 0x34 }
  - { offset: 0x11276, size: 0x8, addend: 0x0, symName: __ZNSt6vectorIS_IiSaIiEESaIS1_EED1Ev, symObjAddr: 0x7C8, symBinAddr: 0x1000043E8, symSize: 0x5C }
  - { offset: 0x112ED, size: 0x8, addend: 0x0, symName: __ZNSt12_Vector_baseISt6vectorIiSaIiEESaIS2_EED2Ev, symObjAddr: 0x76C, symBinAddr: 0x10000438C, symSize: 0x5C }
  - { offset: 0x11346, size: 0x8, addend: 0x0, symName: __ZNSt12_Vector_baseISt6vectorIiSaIiEESaIS2_EE12_Vector_implC1Ev, symObjAddr: 0x734, symBinAddr: 0x100004354, symSize: 0x38 }
  - { offset: 0x113CD, size: 0x8, addend: 0x0, symName: __ZNSt6vectorISt4pairIdS_IiSaIiEEESaIS3_EED1Ev, symObjAddr: 0x6D8, symBinAddr: 0x1000042F8, symSize: 0x5C }
  - { offset: 0x11449, size: 0x8, addend: 0x0, symName: __ZNSt14priority_queueISt4pairIdSt6vectorIiSaIiEEES1_IS4_SaIS4_EESt4lessIvEEC1IS6_vEEv, symObjAddr: 0x6AC, symBinAddr: 0x1000042CC, symSize: 0x2C }
  - { offset: 0x11493, size: 0x8, addend: 0x0, symName: __ZNSt6vectorISt4pairIdS_IiSaIiEEESaIS3_EEC1Ev, symObjAddr: 0x68C, symBinAddr: 0x1000042AC, symSize: 0x20 }
  - { offset: 0x114CF, size: 0x8, addend: 0x0, symName: __ZNSt12_Vector_baseISt4pairIdSt6vectorIiSaIiEEESaIS4_EEC2Ev, symObjAddr: 0x66C, symBinAddr: 0x10000428C, symSize: 0x20 }
  - { offset: 0x11518, size: 0x8, addend: 0x0, symName: __ZNSt12_Vector_baseISt4pairIdSt6vectorIiSaIiEEESaIS4_EE12_Vector_implD1Ev, symObjAddr: 0x640, symBinAddr: 0x100004260, symSize: 0x2C }
  - { offset: 0x1155D, size: 0x8, addend: 0x0, symName: __ZNSt6vectorIiSaIiEEixEm, symObjAddr: 0x618, symBinAddr: 0x100004238, symSize: 0x28 }
  - { offset: 0x11599, size: 0x8, addend: 0x0, symName: _main, symObjAddr: 0x354, symBinAddr: 0x100003F74, symSize: 0x2C4 }
  - { offset: 0x116FB, size: 0x8, addend: 0x0, symName: __Z8kClosestRSt6vectorIS_IiSaIiEESaIS1_EEi, symObjAddr: 0x19C, symBinAddr: 0x100003DBC, symSize: 0x1B8 }
  - { offset: 0x117C7, size: 0x8, addend: 0x0, symName: __ZNSt4pairIdSt6vectorIiSaIiEEEC1ERKS3_, symObjAddr: 0x154, symBinAddr: 0x100003D74, symSize: 0x48 }
  - { offset: 0x11819, size: 0x8, addend: 0x0, symName: __ZNSt4pairIdSt6vectorIiSaIiEEED1Ev, symObjAddr: 0x130, symBinAddr: 0x100003D50, symSize: 0x24 }
  - { offset: 0x11855, size: 0x8, addend: 0x0, symName: __ZNSt6vectorIS_IiSaIiEESaIS1_EEC1Ev, symObjAddr: 0x110, symBinAddr: 0x100003D30, symSize: 0x20 }
  - { offset: 0x11891, size: 0x8, addend: 0x0, symName: __ZNSt12_Vector_baseISt6vectorIiSaIiEESaIS2_EEC2Ev, symObjAddr: 0xF0, symBinAddr: 0x100003D10, symSize: 0x20 }
  - { offset: 0x118DA, size: 0x8, addend: 0x0, symName: __ZNSt12_Vector_baseISt6vectorIiSaIiEESaIS2_EE12_Vector_implD1Ev, symObjAddr: 0xC4, symBinAddr: 0x100003CE4, symSize: 0x2C }
  - { offset: 0x11945, size: 0x8, addend: 0x0, symName: __ZNSt14priority_queueISt4pairIdSt6vectorIiSaIiEEES1_IS4_SaIS4_EESt4lessIvEED1Ev, symObjAddr: 0xA4, symBinAddr: 0x100003CC4, symSize: 0x20 }
  - { offset: 0x11971, size: 0x8, addend: 0x0, symName: __Z8calcDistSt6vectorIiSaIiEE, symObjAddr: 0x38, symBinAddr: 0x100003C58, symSize: 0x6C }
  - { offset: 0x119DD, size: 0x8, addend: 0x0, symName: __ZdlPvS_, symObjAddr: 0x20, symBinAddr: 0x100003C40, symSize: 0x18 }
  - { offset: 0x11A11, size: 0x8, addend: 0x0, symName: __ZnwmPv, symObjAddr: 0x8, symBinAddr: 0x100003C28, symSize: 0x18 }
  - { offset: 0x11A41, size: 0x8, addend: 0x0, symName: __ZN9__gnu_cxx5__ops16__iter_less_iterEv, symObjAddr: 0x0, symBinAddr: 0x100003C20, symSize: 0x8 }
...
